EXPORTS
    _ZN4inet10ILifecycleC2Ev @1
    _ZN4inet10ILifecycleD0Ev @2
    _ZN4inet10ILifecycleD2Ev @3
    _ZN4inet10makeSharedINS_16CustomVoipPacketEJEEENS_12IntrusivePtrIT_EEDpOT0_ @4
    _ZN4inet12constPtrCastINS_16CustomVoipPacketEKS1_EENS_12IntrusivePtrIT_EERKNS3_IT0_EE @5
    _ZN4inet13staticPtrCastINS_16CustomVoipPacketENS_5ChunkEEENS_12IntrusivePtrIT_EERKNS3_IT0_EE @6
    _ZN4inet14dynamicPtrCastINS_16CustomVoipPacketENS_5ChunkEEENS_12IntrusivePtrIT_EERKNS3_IT0_EE @7
    _ZN4inet15HandoverManager10getLteRsrpEv @8
    _ZN4inet15HandoverManager10initializeEi @9
    _ZN4inet15HandoverManager11getWifiRssiEv @10
    _ZN4inet15HandoverManager13handleMessageEPN7omnetpp8cMessageE @11
    _ZN4inet15HandoverManager13updateRoutingEPNS_16NetworkInterfaceES2_ @12
    _ZN4inet15HandoverManager15executeHandoverEv @13
    _ZN4inet15HandoverManager16initiateHandoverENS0_13InterfaceTypeE @14
    _ZN4inet15HandoverManager16logHandoverEventEv @15
    _ZN4inet15HandoverManager18setActiveInterfaceENS0_13InterfaceTypeE @16
    _ZN4inet15HandoverManager19performMeasurementsEv @17
    _ZN4inet15HandoverManager20makeHandoverDecisionEdd @18
    _ZN4inet15HandoverManager21interfaceTypeToStringB5cxx11ENS0_13InterfaceTypeE @19
    _ZN4inet15HandoverManager24simulateRsrpFromDistanceEv @20
    _ZN4inet15HandoverManager24simulateRssiFromDistanceEv @21
    _ZN4inet15HandoverManager6finishEv @22
    _ZN4inet15HandoverManagerC2Ev @23
    _ZN4inet15HandoverManagerD0Ev @24
    _ZN4inet15HandoverManagerD2Ev @25
    _ZN4inet16CustomVoipPacket11setPacketIDEj @26
    _ZN4inet16CustomVoipPacket11setSendTimeEN7omnetpp7SimTimeE @27
    _ZN4inet16CustomVoipPacket12parsimUnpackEPN7omnetpp11cCommBufferE @28
    _ZN4inet16CustomVoipPacket13setSampleBitsEj @29
    _ZN4inet16CustomVoipPacket13setSampleRateEj @30
    _ZN4inet16CustomVoipPacket14setTalkspurtIDEj @31
    _ZN4inet16CustomVoipPacket16setVoiceDurationEN7omnetpp7SimTimeE @32
    _ZN4inet16CustomVoipPacket16setVoipTimestampEN7omnetpp7SimTimeE @33
    _ZN4inet16CustomVoipPacket18setTransmitBitrateEj @34
    _ZN4inet16CustomVoipPacket19setTotalLengthFieldEt @35
    _ZN4inet16CustomVoipPacket22setRetransmissionCountEj @36
    _ZN4inet16CustomVoipPacket22setTalkspurtNumPacketsEj @37
    _ZN4inet16CustomVoipPacket4copyERKS0_ @38
    _ZN4inet16CustomVoipPacket9setSeqNumEj @39
    _ZN4inet16CustomVoipPacketC1ERKS0_ @40
    _ZN4inet16CustomVoipPacketC1Ev @41
    _ZN4inet16CustomVoipPacketC2ERKS0_ @42
    _ZN4inet16CustomVoipPacketC2Ev @43
    _ZN4inet16CustomVoipPacketD0Ev @44
    _ZN4inet16CustomVoipPacketD1Ev @45
    _ZN4inet16CustomVoipPacketD2Ev @46
    _ZN4inet16CustomVoipPacketaSERKS0_ @47
    _ZN4inet16CustomVoipSender10initializeEi @48
    _ZN4inet16CustomVoipSender13handleMessageEPN7omnetpp8cMessageE @49
    _ZN4inet16CustomVoipSender14sendVoIPPacketEv @50
    _ZN4inet16CustomVoipSender27selectTalkOrSilenceIntervalEv @51
    _ZN4inet16CustomVoipSender9talkspurtEN7omnetpp7SimTimeE @52
    _ZN4inet16CustomVoipSenderC1Ev @53
    _ZN4inet16CustomVoipSenderC2Ev @54
    _ZN4inet16CustomVoipSenderD0Ev @55
    _ZN4inet16CustomVoipSenderD1Ev @56
    _ZN4inet16CustomVoipSenderD2Ev @57
    _ZN4inet16getModuleFromParINS_13IRoutingTableEEEPT_RN7omnetpp4cParEPKNS4_7cModuleE @58
    _ZN4inet18CustomVoipReceiver10initializeEi @59
    _ZN4inet18CustomVoipReceiver12socketClosedEPNS_9UdpSocketE @60
    _ZN4inet18CustomVoipReceiver13TalkspurtInfo11checkPacketEPKNS_16CustomVoipPacketE @61
    _ZN4inet18CustomVoipReceiver13TalkspurtInfo14startTalkspurtEPKNS_16CustomVoipPacketE @62
    _ZN4inet18CustomVoipReceiver13TalkspurtInfo15finishTalkspurtEv @63
    _ZN4inet18CustomVoipReceiver13TalkspurtInfo8isActiveEv @64
    _ZN4inet18CustomVoipReceiver13TalkspurtInfo9addPacketEPKNS_16CustomVoipPacketE @65
    _ZN4inet18CustomVoipReceiver13TalkspurtInfoC2Ev @66
    _ZN4inet18CustomVoipReceiver13TalkspurtInfoD2Ev @67
    _ZN4inet18CustomVoipReceiver13handleMessageEPN7omnetpp8cMessageE @68
    _ZN4inet18CustomVoipReceiver14VoipPacketInfoC2ERKS1_ @69
    _ZN4inet18CustomVoipReceiver14VoipPacketInfoC2Ev @70
    _ZN4inet18CustomVoipReceiver14startTalkspurtEPNS_6PacketE @71
    _ZN4inet18CustomVoipReceiver17evaluateTalkspurtEb @72
    _ZN4inet18CustomVoipReceiver17socketDataArrivedEPNS_9UdpSocketEPNS_6PacketE @73
    _ZN4inet18CustomVoipReceiver17voipMosRateSignalE @74 DATA
    _ZN4inet18CustomVoipReceiver18socketErrorArrivedEPNS_9UdpSocketEPNS_10IndicationE @75
    _ZN4inet18CustomVoipReceiver21voipPacketDelaySignalE @76 DATA
    _ZN4inet18CustomVoipReceiver22voipPlayoutDelaySignalE @77 DATA
    _ZN4inet18CustomVoipReceiver24voipPacketLossRateSignalE @78 DATA
    _ZN4inet18CustomVoipReceiver25voipPlayoutLossRateSignalE @79 DATA
    _ZN4inet18CustomVoipReceiver26voipTaildropLossRateSignalE @80 DATA
    _ZN4inet18CustomVoipReceiver6eModelEdd @81
    _ZN4inet18CustomVoipReceiver6finishEv @82
    _ZN4inet18CustomVoipReceiverC1Ev @83
    _ZN4inet18CustomVoipReceiverC2Ev @84
    _ZN4inet18CustomVoipReceiverD0Ev @85
    _ZN4inet18CustomVoipReceiverD1Ev @86
    _ZN4inet18CustomVoipReceiverD2Ev @87
    _ZN4inet20LifecycleUnsupportedC2Ev @88
    _ZN4inet20LifecycleUnsupportedD0Ev @89
    _ZN4inet20LifecycleUnsupportedD2Ev @90
    _ZN4inet22VoIPSenderWithHandover10initializeEi @91
    _ZN4inet22VoIPSenderWithHandover12bufferPacketEPNS_6PacketEi @92
    _ZN4inet22VoIPSenderWithHandover13getSampleBitsEv @93
    _ZN4inet22VoIPSenderWithHandover13getSampleRateEv @94
    _ZN4inet22VoIPSenderWithHandover13handleMessageEPN7omnetpp8cMessageE @95
    _ZN4inet22VoIPSenderWithHandover14sendVoIPPacketEv @96
    _ZN4inet22VoIPSenderWithHandover15handleAckPacketEPNS_6PacketE @97
    _ZN4inet22VoIPSenderWithHandover16handleIndicationEPN7omnetpp8cMessageE @98
    _ZN4inet22VoIPSenderWithHandover17handleSocketErrorEPN7omnetpp8cMessageE @99
    _ZN4inet22VoIPSenderWithHandover18getTransmitBitrateEv @100
    _ZN4inet22VoIPSenderWithHandover20isHandoverInProgressEv @101
    _ZN4inet22VoIPSenderWithHandover21retransmitLostPacketsEv @102
    _ZN4inet22VoIPSenderWithHandover23createVoIPPacketWithSeqEi @103
    _ZN4inet22VoIPSenderWithHandover23getCurrentVoipTimestampEv @104
    _ZN4inet22VoIPSenderWithHandover24processHandoverDetectionEv @105
    _ZN4inet22VoIPSenderWithHandover6finishEv @106
    _ZN4inet22VoIPSenderWithHandoverC2Ev @107
    _ZN4inet22VoIPSenderWithHandoverD0Ev @108
    _ZN4inet22VoIPSenderWithHandoverD1Ev @109
    _ZN4inet22VoIPSenderWithHandoverD2Ev @110
    _ZN4inet24VoIPReceiverWithHandover10initializeEi @111
    _ZN4inet24VoIPReceiverWithHandover13handleMessageEPN7omnetpp8cMessageE @112
    _ZN4inet24VoIPReceiverWithHandover13sendAckPacketEi @113
    _ZN4inet24VoIPReceiverWithHandover17extractSenderInfoEPNS_6PacketE @114
    _ZN4inet24VoIPReceiverWithHandover21extractSequenceNumberEPNS_6PacketE @115
    _ZN4inet24VoIPReceiverWithHandover21handleHandoverTimeoutEv @116
    _ZN4inet24VoIPReceiverWithHandover21processReceivedPacketEPNS_6PacketE @117
    _ZN4inet24VoIPReceiverWithHandover21reorderAndPlayPacketsEv @118
    _ZN4inet24VoIPReceiverWithHandover6finishEv @119
    _ZN4inet24VoIPReceiverWithHandoverC2Ev @120
    _ZN4inet24VoIPReceiverWithHandoverD0Ev @121
    _ZN4inet24VoIPReceiverWithHandoverD1Ev @122
    _ZN4inet24VoIPReceiverWithHandoverD2Ev @123
    _ZN4inet26CustomVoipPacketDescriptorC1Ev @124
    _ZN4inet26CustomVoipPacketDescriptorC2Ev @125
    _ZN4inet26CustomVoipPacketDescriptorD0Ev @126
    _ZN4inet26CustomVoipPacketDescriptorD1Ev @127
    _ZN4inet26CustomVoipPacketDescriptorD2Ev @128
    _ZN4inet32makeExclusivelyOwnedMutableChunkINS_16CustomVoipPacketEEEKNS_12IntrusivePtrIT_EERKNS2_IKS3_EE @129
    _ZN4inet6Packet13removeAtFrontINS_16CustomVoipPacketEEEKNS_12IntrusivePtrIT_EENS_5units5valueIxNS7_5units1bEEEi @130
    _ZN7omnetpp10fromAnyPtrIN4inet16CustomVoipPacketEEEPT_NS_7any_ptrE @131
    _ZN7omnetpp11cSimulation24getFingerprintCalculatorEv @132
    _ZN7omnetpp14check_and_castIPN4inet16CustomVoipPacketENS_7cObjectEEET_PT0_ @133
    _ZN7omnetpp22check_and_cast_failureIPN4inet10NodeStatusENS_7cModuleEEEvPT0_T_ @134
    _ZN7omnetpp22check_and_cast_failureIPN4inet16CustomVoipPacketENS_7cObjectEEEvPT0_T_ @135
    _ZN7omnetpp23check_and_cast_nullableIPN4inet10NodeStatusENS_7cModuleEEET_PT0_ @136
    _ZN7omnetpp7SimTimemLEd @137
    _ZN7omnetpp7SimTimemLEi @138
    _ZN7omnetpp7SimTimemLEj @139
    _ZN7omnetppmlERKNS_7SimTimeEd @140
    _ZN7omnetppmlEiRKNS_7SimTimeE @141
    _ZN7omnetppmlEjRKNS_7SimTimeE @142
    _ZN9__gnu_cxx16__aligned_membufIPN4inet18CustomVoipReceiver14VoipPacketInfoEE6_M_ptrEv @143
    _ZN9__gnu_cxx16__aligned_membufIPN4inet18CustomVoipReceiver14VoipPacketInfoEE7_M_addrEv @144
    _ZN9__gnu_cxx16__aligned_membufISt4pairIKiPN4inet6PacketEEE6_M_ptrEv @145
    _ZN9__gnu_cxx16__aligned_membufISt4pairIKiPN4inet6PacketEEE7_M_addrEv @146
    _ZN9__gnu_cxx17__normal_iteratorIPKN4inet18CustomVoipReceiver14VoipPacketInfoESt6vectorIS3_SaIS3_EEEC2ERKS5_ @147
    _ZN9__gnu_cxx17__normal_iteratorIPN4inet18CustomVoipReceiver14VoipPacketInfoESt6vectorIS3_SaIS3_EEEC2ERKS4_ @148
    _ZN9__gnu_cxx17__normal_iteratorIPN4inet18CustomVoipReceiver14VoipPacketInfoESt6vectorIS3_SaIS3_EEEppEv @149
    _ZN9__gnu_cxxeqIPKN4inet18CustomVoipReceiver14VoipPacketInfoESt6vectorIS3_SaIS3_EEEEbRKNS_17__normal_iteratorIT_T0_EESE_ @150
    _ZN9__gnu_cxxmiIPN4inet18CustomVoipReceiver14VoipPacketInfoESt6vectorIS3_SaIS3_EEEENS_17__normal_iteratorIT_T0_E15difference_typeERKSB_SE_ @151
    _ZN9__gnu_cxxneIPN4inet18CustomVoipReceiver14VoipPacketInfoESt6vectorIS3_SaIS3_EEEEbRKNS_17__normal_iteratorIT_T0_EESD_ @152
    _ZNK4inet11Ipv4Address13isUnspecifiedEv @153
    _ZNK4inet15HandoverManager13numInitStagesEv @154
    _ZNK4inet16CustomVoipPacket10parsimPackEPN7omnetpp11cCommBufferE @155
    _ZNK4inet16CustomVoipPacket11getPacketIDEv @156
    _ZNK4inet16CustomVoipPacket11getSendTimeEv @157
    _ZNK4inet16CustomVoipPacket13getSampleBitsEv @158
    _ZNK4inet16CustomVoipPacket13getSampleRateEv @159
    _ZNK4inet16CustomVoipPacket14getTalkspurtIDEv @160
    _ZNK4inet16CustomVoipPacket16getVoiceDurationEv @161
    _ZNK4inet16CustomVoipPacket16getVoipTimestampEv @162
    _ZNK4inet16CustomVoipPacket18getTransmitBitrateEv @163
    _ZNK4inet16CustomVoipPacket19getTotalLengthFieldEv @164
    _ZNK4inet16CustomVoipPacket22getRetransmissionCountEv @165
    _ZNK4inet16CustomVoipPacket22getTalkspurtNumPacketsEv @166
    _ZNK4inet16CustomVoipPacket3dupEv @167
    _ZNK4inet16CustomVoipPacket9getSeqNumEv @168
    _ZNK4inet16CustomVoipSender13numInitStagesEv @169
    _ZNK4inet18CustomVoipReceiver13numInitStagesEv @170
    _ZNK4inet26CustomVoipPacketDescriptor11doesSupportEPN7omnetpp7cObjectE @171
    _ZNK4inet26CustomVoipPacketDescriptor11getPropertyEPKc @172
    _ZNK4inet26CustomVoipPacketDescriptor12getFieldNameEi @173
    _ZNK4inet26CustomVoipPacketDescriptor13getFieldCountEv @174
    _ZNK4inet26CustomVoipPacketDescriptor13getFieldValueEN7omnetpp7any_ptrEii @175
    _ZNK4inet26CustomVoipPacketDescriptor13setFieldValueEN7omnetpp7any_ptrEiiRKNS1_6cValueE @176
    _ZNK4inet26CustomVoipPacketDescriptor16getFieldPropertyEiPKc @177
    _ZNK4inet26CustomVoipPacketDescriptor16getPropertyNamesEv @178
    _ZNK4inet26CustomVoipPacketDescriptor17getFieldArraySizeEN7omnetpp7any_ptrEi @179
    _ZNK4inet26CustomVoipPacketDescriptor17getFieldTypeFlagsEi @180
    _ZNK4inet26CustomVoipPacketDescriptor17setFieldArraySizeEN7omnetpp7any_ptrEii @181
    _ZNK4inet26CustomVoipPacketDescriptor18getFieldStructNameEi @182
    _ZNK4inet26CustomVoipPacketDescriptor18getFieldTypeStringEi @183
    _ZNK4inet26CustomVoipPacketDescriptor21getFieldPropertyNamesEi @184
    _ZNK4inet26CustomVoipPacketDescriptor21getFieldValueAsStringB5cxx11EN7omnetpp7any_ptrEii @185
    _ZNK4inet26CustomVoipPacketDescriptor21setFieldValueAsStringEN7omnetpp7any_ptrEiiPKc @186
    _ZNK4inet26CustomVoipPacketDescriptor25getFieldDynamicTypeStringEN7omnetpp7any_ptrEii @187
    _ZNK4inet26CustomVoipPacketDescriptor26getFieldStructValuePointerEN7omnetpp7any_ptrEii @188
    _ZNK4inet26CustomVoipPacketDescriptor26setFieldStructValuePointerEN7omnetpp7any_ptrEiiS2_ @189
    _ZNK4inet26CustomVoipPacketDescriptor9findFieldEPKc @190
    _ZNK4inet5Chunk13peekConvertedINS_16CustomVoipPacketEEEKNS_12IntrusivePtrIT_EERKNS0_8IteratorENS_5units5valueIxNSA_5units1bEEEi @191
    _ZNK4inet5Chunk15checkPeekResultINS_16CustomVoipPacketEEEKNS_12IntrusivePtrIT_EERS6_i @192
    _ZNK4inet5Chunk4peekINS_16CustomVoipPacketEEEKNS_12IntrusivePtrIT_EERKNS0_8IteratorENS_5units5valueIxNSA_5units1bEEEi @193
    _ZNK4inet6Packet11peekAtFrontINS_16CustomVoipPacketEEEKNS_12IntrusivePtrIKT_EENS_5units5valueIxNS8_5units1bEEEi @194
    _ZNK4inet9Ipv4Route10getNetmaskEv @195
    _ZNK4inet9Ipv4Route14getDestinationEv @196
    _ZNK7omnetpp7SimTime6isZeroEv @197
    _ZNK7omnetpp7SimTimengEv @198
    _ZNK7omnetpp8cMessage14getArrivalTimeEv @199
    _ZNK7omnetpp8cMessage7getKindEv @200
    _ZNK9__gnu_cxx16__aligned_membufISt4pairIKiPN4inet6PacketEEE6_M_ptrEv @201
    _ZNK9__gnu_cxx16__aligned_membufISt4pairIKiPN4inet6PacketEEE7_M_addrEv @202
    _ZNK9__gnu_cxx17__normal_iteratorIPKN4inet18CustomVoipReceiver14VoipPacketInfoESt6vectorIS3_SaIS3_EEE4baseEv @203
    _ZNK9__gnu_cxx17__normal_iteratorIPN4inet18CustomVoipReceiver14VoipPacketInfoESt6vectorIS3_SaIS3_EEE4baseEv @204
    _ZNK9__gnu_cxx17__normal_iteratorIPN4inet18CustomVoipReceiver14VoipPacketInfoESt6vectorIS3_SaIS3_EEEdeEv @205
    _ZNKSt10_Select1stISt4pairIKiPN4inet6PacketEEEclERKS5_ @206
    _ZNKSt12_Vector_baseIN4inet18CustomVoipReceiver14VoipPacketInfoESaIS2_EE19_M_get_Tp_allocatorEv @207
    _ZNKSt13_Rb_tree_nodeISt4pairIKiPN4inet6PacketEEE9_M_valptrEv @208
    _ZNKSt14_List_iteratorIPN4inet18CustomVoipReceiver14VoipPacketInfoEEdeEv @209
    _ZNKSt15__new_allocatorIN4inet18CustomVoipReceiver14VoipPacketInfoEE11_M_max_sizeEv @210
    _ZNKSt15__new_allocatorIN4inet18CustomVoipReceiver14VoipPacketInfoEE8max_sizeEv @211
    _ZNKSt15__new_allocatorISt10_List_nodeIPN4inet18CustomVoipReceiver14VoipPacketInfoEEE11_M_max_sizeEv @212
    _ZNKSt15__new_allocatorISt13_Rb_tree_nodeISt4pairIKiPN4inet6PacketEEEE11_M_max_sizeEv @213
    _ZNKSt17_Rb_tree_iteratorISt4pairIKiPN4inet6PacketEEEdeEv @214
    _ZNKSt17_Rb_tree_iteratorISt4pairIKiPN4inet6PacketEEEptEv @215
    _ZNKSt20_List_const_iteratorIPN4inet18CustomVoipReceiver14VoipPacketInfoEE13_M_const_castEv @216
    _ZNKSt23_Rb_tree_const_iteratorISt4pairIKiPN4inet6PacketEEE13_M_const_castEv @217
    _ZNKSt3mapIiPN4inet6PacketESt4lessIiESaISt4pairIKiS2_EEE8key_compEv @218
    _ZNKSt6vectorIN4inet18CustomVoipReceiver14VoipPacketInfoESaIS2_EE12_M_check_lenEyPKc @219
    _ZNKSt6vectorIN4inet18CustomVoipReceiver14VoipPacketInfoESaIS2_EE3endEv @220
    _ZNKSt6vectorIN4inet18CustomVoipReceiver14VoipPacketInfoESaIS2_EE4sizeEv @221
    _ZNKSt6vectorIN4inet18CustomVoipReceiver14VoipPacketInfoESaIS2_EE5beginEv @222
    _ZNKSt6vectorIN4inet18CustomVoipReceiver14VoipPacketInfoESaIS2_EE5emptyEv @223
    _ZNKSt6vectorIN4inet18CustomVoipReceiver14VoipPacketInfoESaIS2_EE8capacityEv @224
    _ZNKSt6vectorIN4inet18CustomVoipReceiver14VoipPacketInfoESaIS2_EE8max_sizeEv @225
    _ZNKSt7__cxx1110_List_baseIPN4inet18CustomVoipReceiver14VoipPacketInfoESaIS4_EE11_M_get_sizeEv @226
    _ZNKSt7__cxx114listIPN4inet18CustomVoipReceiver14VoipPacketInfoESaIS4_EE13_M_node_countEv @227
    _ZNKSt7__cxx114listIPN4inet18CustomVoipReceiver14VoipPacketInfoESaIS4_EE4sizeEv @228
    _ZNKSt8_Rb_treeIiSt4pairIKiPN4inet6PacketEESt10_Select1stIS5_ESt4lessIiESaIS5_EE10_Auto_node6_M_keyEv @229
    _ZNKSt8_Rb_treeIiSt4pairIKiPN4inet6PacketEESt10_Select1stIS5_ESt4lessIiESaIS5_EE4sizeEv @230
    _ZNKSt8_Rb_treeIiSt4pairIKiPN4inet6PacketEESt10_Select1stIS5_ESt4lessIiESaIS5_EE8key_compEv @231
    _ZNKSt8_Rb_treeIiSt4pairIKiPN4inet6PacketEESt10_Select1stIS5_ESt4lessIiESaIS5_EE9_M_mbeginEv @232
    _ZNSaIN4inet18CustomVoipReceiver14VoipPacketInfoEEC2Ev @233
    _ZNSaIN4inet18CustomVoipReceiver14VoipPacketInfoEED2Ev @234
    _ZNSaISt10_List_nodeIPN4inet18CustomVoipReceiver14VoipPacketInfoEEEC2Ev @235
    _ZNSaISt10_List_nodeIPN4inet18CustomVoipReceiver14VoipPacketInfoEEED2Ev @236
    _ZNSaISt13_Rb_tree_nodeISt4pairIKiPN4inet6PacketEEEEC2Ev @237
    _ZNSaISt13_Rb_tree_nodeISt4pairIKiPN4inet6PacketEEEED2Ev @238
    _ZNSt10_List_nodeIPN4inet18CustomVoipReceiver14VoipPacketInfoEE9_M_valptrEv @239
    _ZNSt12_Destroy_auxILb1EE9__destroyIPN4inet18CustomVoipReceiver14VoipPacketInfoEEEvT_S6_ @240
    _ZNSt12_Vector_baseIN4inet18CustomVoipReceiver14VoipPacketInfoESaIS2_EE11_M_allocateEy @241
    _ZNSt12_Vector_baseIN4inet18CustomVoipReceiver14VoipPacketInfoESaIS2_EE12_Vector_implC2Ev @242
    _ZNSt12_Vector_baseIN4inet18CustomVoipReceiver14VoipPacketInfoESaIS2_EE12_Vector_implD2Ev @243
    _ZNSt12_Vector_baseIN4inet18CustomVoipReceiver14VoipPacketInfoESaIS2_EE13_M_deallocateEPS2_y @244
    _ZNSt12_Vector_baseIN4inet18CustomVoipReceiver14VoipPacketInfoESaIS2_EE17_Vector_impl_dataC2Ev @245
    _ZNSt12_Vector_baseIN4inet18CustomVoipReceiver14VoipPacketInfoESaIS2_EE19_M_get_Tp_allocatorEv @246
    _ZNSt12_Vector_baseIN4inet18CustomVoipReceiver14VoipPacketInfoESaIS2_EEC2Ev @247
    _ZNSt12_Vector_baseIN4inet18CustomVoipReceiver14VoipPacketInfoESaIS2_EED2Ev @248
    _ZNSt13_Rb_tree_nodeISt4pairIKiPN4inet6PacketEEE9_M_valptrEv @249
    _ZNSt14_List_iteratorIPN4inet18CustomVoipReceiver14VoipPacketInfoEEC2EPNSt8__detail15_List_node_baseE @250
    _ZNSt14_List_iteratorIPN4inet18CustomVoipReceiver14VoipPacketInfoEEppEv @251
    _ZNSt14numeric_limitsIdE9quiet_NaNEv @252
    _ZNSt15__allocated_ptrISaISt10_List_nodeIPN4inet18CustomVoipReceiver14VoipPacketInfoEEEEC2ERS6_PS5_ @253
    _ZNSt15__allocated_ptrISaISt10_List_nodeIPN4inet18CustomVoipReceiver14VoipPacketInfoEEEED2Ev @254
    _ZNSt15__allocated_ptrISaISt10_List_nodeIPN4inet18CustomVoipReceiver14VoipPacketInfoEEEEaSEDn @255
    _ZNSt15__new_allocatorIN4inet18CustomVoipReceiver14VoipPacketInfoEE10deallocateEPS2_y @256
    _ZNSt15__new_allocatorIN4inet18CustomVoipReceiver14VoipPacketInfoEE7destroyIS2_EEvPT_ @257
    _ZNSt15__new_allocatorIN4inet18CustomVoipReceiver14VoipPacketInfoEE8allocateEyPKv @258
    _ZNSt15__new_allocatorIN4inet18CustomVoipReceiver14VoipPacketInfoEE9constructIS2_JRKS2_EEEvPT_DpOT0_ @259
    _ZNSt15__new_allocatorIN4inet18CustomVoipReceiver14VoipPacketInfoEEC2Ev @260
    _ZNSt15__new_allocatorIN4inet18CustomVoipReceiver14VoipPacketInfoEED2Ev @261
    _ZNSt15__new_allocatorISt10_List_nodeIPN4inet18CustomVoipReceiver14VoipPacketInfoEEE10deallocateEPS5_y @262
    _ZNSt15__new_allocatorISt10_List_nodeIPN4inet18CustomVoipReceiver14VoipPacketInfoEEE7destroyIS4_EEvPT_ @263
    _ZNSt15__new_allocatorISt10_List_nodeIPN4inet18CustomVoipReceiver14VoipPacketInfoEEE8allocateEyPKv @264
    _ZNSt15__new_allocatorISt10_List_nodeIPN4inet18CustomVoipReceiver14VoipPacketInfoEEE9constructIS4_JS4_EEEvPT_DpOT0_ @265
    _ZNSt15__new_allocatorISt10_List_nodeIPN4inet18CustomVoipReceiver14VoipPacketInfoEEEC2Ev @266
    _ZNSt15__new_allocatorISt10_List_nodeIPN4inet18CustomVoipReceiver14VoipPacketInfoEEED2Ev @267
    _ZNSt15__new_allocatorISt13_Rb_tree_nodeISt4pairIKiPN4inet6PacketEEEE10deallocateEPS7_y @268
    _ZNSt15__new_allocatorISt13_Rb_tree_nodeISt4pairIKiPN4inet6PacketEEEE7destroyIS6_EEvPT_ @269
    _ZNSt15__new_allocatorISt13_Rb_tree_nodeISt4pairIKiPN4inet6PacketEEEE8allocateEyPKv @270
    _ZNSt15__new_allocatorISt13_Rb_tree_nodeISt4pairIKiPN4inet6PacketEEEE9constructIS6_JRKSt21piecewise_construct_tSt5tupleIJRS2_EESD_IJEEEEEvPT_DpOT0_ @271
    _ZNSt15__new_allocatorISt13_Rb_tree_nodeISt4pairIKiPN4inet6PacketEEEEC2Ev @272
    _ZNSt15__new_allocatorISt13_Rb_tree_nodeISt4pairIKiPN4inet6PacketEEEED2Ev @273
    _ZNSt16allocator_traitsISaIN4inet18CustomVoipReceiver14VoipPacketInfoEEE10deallocateERS3_PS2_y @274
    _ZNSt16allocator_traitsISaIN4inet18CustomVoipReceiver14VoipPacketInfoEEE7destroyIS2_EEvRS3_PT_ @275
    _ZNSt16allocator_traitsISaIN4inet18CustomVoipReceiver14VoipPacketInfoEEE8allocateERS3_y @276
    _ZNSt16allocator_traitsISaIN4inet18CustomVoipReceiver14VoipPacketInfoEEE8max_sizeERKS3_ @277
    _ZNSt16allocator_traitsISaIN4inet18CustomVoipReceiver14VoipPacketInfoEEE9constructIS2_JRKS2_EEEvRS3_PT_DpOT0_ @278
    _ZNSt16allocator_traitsISaISt10_List_nodeIPN4inet18CustomVoipReceiver14VoipPacketInfoEEEE10deallocateERS6_PS5_y @279
    _ZNSt16allocator_traitsISaISt10_List_nodeIPN4inet18CustomVoipReceiver14VoipPacketInfoEEEE7destroyIS4_EEvRS6_PT_ @280
    _ZNSt16allocator_traitsISaISt10_List_nodeIPN4inet18CustomVoipReceiver14VoipPacketInfoEEEE8allocateERS6_y @281
    _ZNSt16allocator_traitsISaISt10_List_nodeIPN4inet18CustomVoipReceiver14VoipPacketInfoEEEE9constructIS4_JS4_EEEvRS6_PT_DpOT0_ @282
    _ZNSt16allocator_traitsISaISt13_Rb_tree_nodeISt4pairIKiPN4inet6PacketEEEEE10deallocateERS8_PS7_y @283
    _ZNSt16allocator_traitsISaISt13_Rb_tree_nodeISt4pairIKiPN4inet6PacketEEEEE7destroyIS6_EEvRS8_PT_ @284
    _ZNSt16allocator_traitsISaISt13_Rb_tree_nodeISt4pairIKiPN4inet6PacketEEEEE8allocateERS8_y @285
    _ZNSt16allocator_traitsISaISt13_Rb_tree_nodeISt4pairIKiPN4inet6PacketEEEEE9constructIS6_JRKSt21piecewise_construct_tSt5tupleIJRS2_EESE_IJEEEEEvRS8_PT_DpOT0_ @286
    _ZNSt17_Rb_tree_iteratorISt4pairIKiPN4inet6PacketEEEC2EPSt18_Rb_tree_node_base @287
    _ZNSt17_Rb_tree_iteratorISt4pairIKiPN4inet6PacketEEEmmEv @288
    _ZNSt17_Rb_tree_iteratorISt4pairIKiPN4inet6PacketEEEppEv @289
    _ZNSt20_List_const_iteratorIPN4inet18CustomVoipReceiver14VoipPacketInfoEEC2ERKSt14_List_iteratorIS3_E @290
    _ZNSt20__uninitialized_copyILb0EE13__uninit_copyIPKN4inet18CustomVoipReceiver14VoipPacketInfoEPS4_EET0_T_S9_S8_ @291
    _ZNSt23_Rb_tree_const_iteratorISt4pairIKiPN4inet6PacketEEEC2ERKSt17_Rb_tree_iteratorIS5_E @292
    _ZNSt23_Rb_tree_const_iteratorISt4pairIKiPN4inet6PacketEEEppEi @293
    _ZNSt3mapIiPN4inet6PacketESt4lessIiESaISt4pairIKiS2_EEE11lower_boundERS6_ @294
    _ZNSt3mapIiPN4inet6PacketESt4lessIiESaISt4pairIKiS2_EEE11upper_boundERS6_ @295
    _ZNSt3mapIiPN4inet6PacketESt4lessIiESaISt4pairIKiS2_EEE3endEv @296
    _ZNSt3mapIiPN4inet6PacketESt4lessIiESaISt4pairIKiS2_EEE4findERS6_ @297
    _ZNSt3mapIiPN4inet6PacketESt4lessIiESaISt4pairIKiS2_EEE5beginEv @298
    _ZNSt3mapIiPN4inet6PacketESt4lessIiESaISt4pairIKiS2_EEE5clearEv @299
    _ZNSt3mapIiPN4inet6PacketESt4lessIiESaISt4pairIKiS2_EEE5eraseB5cxx11ESt17_Rb_tree_iteratorIS7_E @300
    _ZNSt3mapIiPN4inet6PacketESt4lessIiESaISt4pairIKiS2_EEE5eraseERS6_ @301
    _ZNSt3mapIiPN4inet6PacketESt4lessIiESaISt4pairIKiS2_EEEC2Ev @302
    _ZNSt3mapIiPN4inet6PacketESt4lessIiESaISt4pairIKiS2_EEED2Ev @303
    _ZNSt3mapIiPN4inet6PacketESt4lessIiESaISt4pairIKiS2_EEEixERS6_ @304
    _ZNSt4pairIKiPN4inet6PacketEEC2IJRS0_EJEEESt21piecewise_construct_tSt5tupleIJDpT_EES8_IJDpT0_EE @305
    _ZNSt4pairIKiPN4inet6PacketEEC2IJRS0_EJLy0EEJEJEEERSt5tupleIJDpT_EERS7_IJDpT1_EESt12_Index_tupleIJXspT0_EEESG_IJXspT2_EEE @306
    _ZNSt4pairIPSt18_Rb_tree_node_baseS1_EC2IRPSt13_Rb_tree_nodeIS_IKiPN4inet6PacketEEERS1_Lb1EEEOT_OT0_ @307
    _ZNSt4pairISt17_Rb_tree_iteratorIS_IKiPN4inet6PacketEEES6_EC2IS6_S6_Lb1EEEOT_OT0_ @308
    _ZNSt6vectorIN4inet18CustomVoipReceiver14VoipPacketInfoESaIS2_EE11_S_max_sizeERKS3_ @309
    _ZNSt6vectorIN4inet18CustomVoipReceiver14VoipPacketInfoESaIS2_EE15_M_erase_at_endEPS2_ @310
    _ZNSt6vectorIN4inet18CustomVoipReceiver14VoipPacketInfoESaIS2_EE17_M_realloc_insertIJRKS2_EEEvN9__gnu_cxx17__normal_iteratorIPS2_S4_EEDpOT_ @311
    _ZNSt6vectorIN4inet18CustomVoipReceiver14VoipPacketInfoESaIS2_EE20_M_allocate_and_copyIPKS2_EEPS2_yT_S9_ @312
    _ZNSt6vectorIN4inet18CustomVoipReceiver14VoipPacketInfoESaIS2_EE3endEv @313
    _ZNSt6vectorIN4inet18CustomVoipReceiver14VoipPacketInfoESaIS2_EE5beginEv @314
    _ZNSt6vectorIN4inet18CustomVoipReceiver14VoipPacketInfoESaIS2_EE5clearEv @315
    _ZNSt6vectorIN4inet18CustomVoipReceiver14VoipPacketInfoESaIS2_EE5frontEv @316
    _ZNSt6vectorIN4inet18CustomVoipReceiver14VoipPacketInfoESaIS2_EE7reserveEy @317
    _ZNSt6vectorIN4inet18CustomVoipReceiver14VoipPacketInfoESaIS2_EE9push_backERKS2_ @318
    _ZNSt6vectorIN4inet18CustomVoipReceiver14VoipPacketInfoESaIS2_EEC2Ev @319
    _ZNSt6vectorIN4inet18CustomVoipReceiver14VoipPacketInfoESaIS2_EED2Ev @320
    _ZNSt7__cxx1110_List_baseIPN4inet18CustomVoipReceiver14VoipPacketInfoESaIS4_EE10_List_implC2Ev @321
    _ZNSt7__cxx1110_List_baseIPN4inet18CustomVoipReceiver14VoipPacketInfoESaIS4_EE10_List_implD2Ev @322
    _ZNSt7__cxx1110_List_baseIPN4inet18CustomVoipReceiver14VoipPacketInfoESaIS4_EE11_M_dec_sizeEy @323
    _ZNSt7__cxx1110_List_baseIPN4inet18CustomVoipReceiver14VoipPacketInfoESaIS4_EE11_M_get_nodeEv @324
    _ZNSt7__cxx1110_List_baseIPN4inet18CustomVoipReceiver14VoipPacketInfoESaIS4_EE11_M_inc_sizeEy @325
    _ZNSt7__cxx1110_List_baseIPN4inet18CustomVoipReceiver14VoipPacketInfoESaIS4_EE11_M_put_nodeEPSt10_List_nodeIS4_E @326
    _ZNSt7__cxx1110_List_baseIPN4inet18CustomVoipReceiver14VoipPacketInfoESaIS4_EE21_M_get_Node_allocatorEv @327
    _ZNSt7__cxx1110_List_baseIPN4inet18CustomVoipReceiver14VoipPacketInfoESaIS4_EE8_M_clearEv @328
    _ZNSt7__cxx1110_List_baseIPN4inet18CustomVoipReceiver14VoipPacketInfoESaIS4_EEC2Ev @329
    _ZNSt7__cxx1110_List_baseIPN4inet18CustomVoipReceiver14VoipPacketInfoESaIS4_EED2Ev @330
    _ZNSt7__cxx114listIPN4inet18CustomVoipReceiver14VoipPacketInfoESaIS4_EE14_M_create_nodeIJS4_EEEPSt10_List_nodeIS4_EDpOT_ @331
    _ZNSt7__cxx114listIPN4inet18CustomVoipReceiver14VoipPacketInfoESaIS4_EE3endEv @332
    _ZNSt7__cxx114listIPN4inet18CustomVoipReceiver14VoipPacketInfoESaIS4_EE5beginEv @333
    _ZNSt7__cxx114listIPN4inet18CustomVoipReceiver14VoipPacketInfoESaIS4_EE5eraseESt20_List_const_iteratorIS4_E @334
    _ZNSt7__cxx114listIPN4inet18CustomVoipReceiver14VoipPacketInfoESaIS4_EE8_M_eraseESt14_List_iteratorIS4_E @335
    _ZNSt7__cxx114listIPN4inet18CustomVoipReceiver14VoipPacketInfoESaIS4_EE9_M_insertIJS4_EEEvSt14_List_iteratorIS4_EDpOT_ @336
    _ZNSt7__cxx114listIPN4inet18CustomVoipReceiver14VoipPacketInfoESaIS4_EE9push_backEOS4_ @337
    _ZNSt7__cxx114listIPN4inet18CustomVoipReceiver14VoipPacketInfoESaIS4_EEC2Ev @338
    _ZNSt7__cxx114listIPN4inet18CustomVoipReceiver14VoipPacketInfoESaIS4_EED2Ev @339
    _ZNSt8_Rb_treeIiSt4pairIKiPN4inet6PacketEESt10_Select1stIS5_ESt4lessIiESaIS5_EE10_Auto_node9_M_insertES0_IPSt18_Rb_tree_node_baseSE_E @340
    _ZNSt8_Rb_treeIiSt4pairIKiPN4inet6PacketEESt10_Select1stIS5_ESt4lessIiESaIS5_EE10_Auto_nodeC2IJRKSt21piecewise_construct_tSt5tupleIJRS1_EESH_IJEEEEERSB_DpOT_ @341
    _ZNSt8_Rb_treeIiSt4pairIKiPN4inet6PacketEESt10_Select1stIS5_ESt4lessIiESaIS5_EE10_Auto_nodeD2Ev @342
    _ZNSt8_Rb_treeIiSt4pairIKiPN4inet6PacketEESt10_Select1stIS5_ESt4lessIiESaIS5_EE11_M_get_nodeEv @343
    _ZNSt8_Rb_treeIiSt4pairIKiPN4inet6PacketEESt10_Select1stIS5_ESt4lessIiESaIS5_EE11_M_leftmostEv @344
    _ZNSt8_Rb_treeIiSt4pairIKiPN4inet6PacketEESt10_Select1stIS5_ESt4lessIiESaIS5_EE11_M_put_nodeEPSt13_Rb_tree_nodeIS5_E @345
    _ZNSt8_Rb_treeIiSt4pairIKiPN4inet6PacketEESt10_Select1stIS5_ESt4lessIiESaIS5_EE11equal_rangeERS1_ @346
    _ZNSt8_Rb_treeIiSt4pairIKiPN4inet6PacketEESt10_Select1stIS5_ESt4lessIiESaIS5_EE11lower_boundERS1_ @347
    _ZNSt8_Rb_treeIiSt4pairIKiPN4inet6PacketEESt10_Select1stIS5_ESt4lessIiESaIS5_EE11upper_boundERS1_ @348
    _ZNSt8_Rb_treeIiSt4pairIKiPN4inet6PacketEESt10_Select1stIS5_ESt4lessIiESaIS5_EE12_M_drop_nodeEPSt13_Rb_tree_nodeIS5_E @349
    _ZNSt8_Rb_treeIiSt4pairIKiPN4inet6PacketEESt10_Select1stIS5_ESt4lessIiESaIS5_EE12_M_erase_auxESt23_Rb_tree_const_iteratorIS5_E @350
    _ZNSt8_Rb_treeIiSt4pairIKiPN4inet6PacketEESt10_Select1stIS5_ESt4lessIiESaIS5_EE12_M_erase_auxESt23_Rb_tree_const_iteratorIS5_ESD_ @351
    _ZNSt8_Rb_treeIiSt4pairIKiPN4inet6PacketEESt10_Select1stIS5_ESt4lessIiESaIS5_EE12_M_rightmostEv @352
    _ZNSt8_Rb_treeIiSt4pairIKiPN4inet6PacketEESt10_Select1stIS5_ESt4lessIiESaIS5_EE13_Rb_tree_implIS9_Lb1EEC2Ev @353
    _ZNSt8_Rb_treeIiSt4pairIKiPN4inet6PacketEESt10_Select1stIS5_ESt4lessIiESaIS5_EE13_Rb_tree_implIS9_Lb1EED2Ev @354
    _ZNSt8_Rb_treeIiSt4pairIKiPN4inet6PacketEESt10_Select1stIS5_ESt4lessIiESaIS5_EE14_M_create_nodeIJRKSt21piecewise_construct_tSt5tupleIJRS1_EESG_IJEEEEEPSt13_Rb_tree_nodeIS5_EDpOT_ @355
    _ZNSt8_Rb_treeIiSt4pairIKiPN4inet6PacketEESt10_Select1stIS5_ESt4lessIiESaIS5_EE14_M_insert_nodeEPSt18_Rb_tree_node_baseSD_PSt13_Rb_tree_nodeIS5_E @356
    _ZNSt8_Rb_treeIiSt4pairIKiPN4inet6PacketEESt10_Select1stIS5_ESt4lessIiESaIS5_EE14_M_lower_boundEPSt13_Rb_tree_nodeIS5_EPSt18_Rb_tree_node_baseRS1_ @357
    _ZNSt8_Rb_treeIiSt4pairIKiPN4inet6PacketEESt10_Select1stIS5_ESt4lessIiESaIS5_EE14_M_upper_boundEPSt13_Rb_tree_nodeIS5_EPSt18_Rb_tree_node_baseRS1_ @358
    _ZNSt8_Rb_treeIiSt4pairIKiPN4inet6PacketEESt10_Select1stIS5_ESt4lessIiESaIS5_EE15_M_destroy_nodeEPSt13_Rb_tree_nodeIS5_E @359
    _ZNSt8_Rb_treeIiSt4pairIKiPN4inet6PacketEESt10_Select1stIS5_ESt4lessIiESaIS5_EE17_M_construct_nodeIJRKSt21piecewise_construct_tSt5tupleIJRS1_EESG_IJEEEEEvPSt13_Rb_tree_nodeIS5_EDpOT_ @360
    _ZNSt8_Rb_treeIiSt4pairIKiPN4inet6PacketEESt10_Select1stIS5_ESt4lessIiESaIS5_EE21_M_get_Node_allocatorEv @361
    _ZNSt8_Rb_treeIiSt4pairIKiPN4inet6PacketEESt10_Select1stIS5_ESt4lessIiESaIS5_EE22_M_emplace_hint_uniqueIJRKSt21piecewise_construct_tSt5tupleIJRS1_EESG_IJEEEEESt17_Rb_tree_iteratorIS5_ESt23_Rb_tree_const_iteratorIS5_EDpOT_ @362
    _ZNSt8_Rb_treeIiSt4pairIKiPN4inet6PacketEESt10_Select1stIS5_ESt4lessIiESaIS5_EE24_M_get_insert_unique_posERS1_ @363
    _ZNSt8_Rb_treeIiSt4pairIKiPN4inet6PacketEESt10_Select1stIS5_ESt4lessIiESaIS5_EE29_M_get_insert_hint_unique_posESt23_Rb_tree_const_iteratorIS5_ERS1_ @364
    _ZNSt8_Rb_treeIiSt4pairIKiPN4inet6PacketEESt10_Select1stIS5_ESt4lessIiESaIS5_EE3endEv @365
    _ZNSt8_Rb_treeIiSt4pairIKiPN4inet6PacketEESt10_Select1stIS5_ESt4lessIiESaIS5_EE4findERS1_ @366
    _ZNSt8_Rb_treeIiSt4pairIKiPN4inet6PacketEESt10_Select1stIS5_ESt4lessIiESaIS5_EE5beginEv @367
    _ZNSt8_Rb_treeIiSt4pairIKiPN4inet6PacketEESt10_Select1stIS5_ESt4lessIiESaIS5_EE5clearEv @368
    _ZNSt8_Rb_treeIiSt4pairIKiPN4inet6PacketEESt10_Select1stIS5_ESt4lessIiESaIS5_EE5eraseB5cxx11ESt17_Rb_tree_iteratorIS5_E @369
    _ZNSt8_Rb_treeIiSt4pairIKiPN4inet6PacketEESt10_Select1stIS5_ESt4lessIiESaIS5_EE5eraseERS1_ @370
    _ZNSt8_Rb_treeIiSt4pairIKiPN4inet6PacketEESt10_Select1stIS5_ESt4lessIiESaIS5_EE6_M_endEv @371
    _ZNSt8_Rb_treeIiSt4pairIKiPN4inet6PacketEESt10_Select1stIS5_ESt4lessIiESaIS5_EE6_S_keyEPKSt13_Rb_tree_nodeIS5_E @372
    _ZNSt8_Rb_treeIiSt4pairIKiPN4inet6PacketEESt10_Select1stIS5_ESt4lessIiESaIS5_EE6_S_keyEPKSt18_Rb_tree_node_base @373
    _ZNSt8_Rb_treeIiSt4pairIKiPN4inet6PacketEESt10_Select1stIS5_ESt4lessIiESaIS5_EE7_S_leftEPSt18_Rb_tree_node_base @374
    _ZNSt8_Rb_treeIiSt4pairIKiPN4inet6PacketEESt10_Select1stIS5_ESt4lessIiESaIS5_EE8_M_beginEv @375
    _ZNSt8_Rb_treeIiSt4pairIKiPN4inet6PacketEESt10_Select1stIS5_ESt4lessIiESaIS5_EE8_M_eraseEPSt13_Rb_tree_nodeIS5_E @376
    _ZNSt8_Rb_treeIiSt4pairIKiPN4inet6PacketEESt10_Select1stIS5_ESt4lessIiESaIS5_EE8_S_rightEPSt18_Rb_tree_node_base @377
    _ZNSt8_Rb_treeIiSt4pairIKiPN4inet6PacketEESt10_Select1stIS5_ESt4lessIiESaIS5_EEC2Ev @378
    _ZNSt8_Rb_treeIiSt4pairIKiPN4inet6PacketEESt10_Select1stIS5_ESt4lessIiESaIS5_EED2Ev @379
    _ZSt10_ConstructIN4inet18CustomVoipReceiver14VoipPacketInfoEJRKS2_EEvPT_DpOT0_ @380
    _ZSt11__addressofIN4inet18CustomVoipReceiver14VoipPacketInfoEEPT_RS3_ @381
    _ZSt11__addressofISaISt10_List_nodeIPN4inet18CustomVoipReceiver14VoipPacketInfoEEEEPT_RS7_ @382
    _ZSt16__do_uninit_copyIPKN4inet18CustomVoipReceiver14VoipPacketInfoEPS2_ET0_T_S7_S6_ @383
    _ZSt18uninitialized_copyIPKN4inet18CustomVoipReceiver14VoipPacketInfoEPS2_ET0_T_S7_S6_ @384
    _ZSt22__uninitialized_copy_aIPKN4inet18CustomVoipReceiver14VoipPacketInfoEPS2_S2_ET0_T_S7_S6_RSaIT1_E @385
    _ZSt32__make_move_if_noexcept_iteratorIN4inet18CustomVoipReceiver14VoipPacketInfoEPKS2_ET0_PT_ @386
    _ZSt34__uninitialized_move_if_noexcept_aIPN4inet18CustomVoipReceiver14VoipPacketInfoES3_SaIS2_EET0_T_S6_S5_RT1_ @387
    _ZSt4moveIRPN4inet18CustomVoipReceiver14VoipPacketInfoEEONSt16remove_referenceIT_E4typeEOS6_ @388
    _ZSt7forwardIPN4inet18CustomVoipReceiver14VoipPacketInfoEEOT_RNSt16remove_referenceIS4_E4typeE @389
    _ZSt7forwardIRKN4inet18CustomVoipReceiver14VoipPacketInfoEEOT_RNSt16remove_referenceIS5_E4typeE @390
    _ZSt7forwardIRPSt13_Rb_tree_nodeISt4pairIKiPN4inet6PacketEEEEOT_RNSt16remove_referenceISA_E4typeE @391
    _ZSt7forwardISt17_Rb_tree_iteratorISt4pairIKiPN4inet6PacketEEEEOT_RNSt16remove_referenceIS8_E4typeE @392
    _ZSt8_DestroyIPN4inet18CustomVoipReceiver14VoipPacketInfoEEvT_S4_ @393
    _ZSt8_DestroyIPN4inet18CustomVoipReceiver14VoipPacketInfoES2_EvT_S4_RSaIT0_E @394
    _ZSteqRKSt17_Rb_tree_iteratorISt4pairIKiPN4inet6PacketEEES8_ @395
    _ZSteqRKSt23_Rb_tree_const_iteratorISt4pairIKiPN4inet6PacketEEES8_ @396
    _ZStneRKSt14_List_iteratorIPN4inet18CustomVoipReceiver14VoipPacketInfoEES6_ @397
    _ZStneRKSt17_Rb_tree_iteratorISt4pairIKiPN4inet6PacketEEES8_ @398
    _ZStneRKSt23_Rb_tree_const_iteratorISt4pairIKiPN4inet6PacketEEES8_ @399
    _ZTIN4inet10NodeStatusE @400 DATA
    _ZTIN4inet15HandoverManagerE @401 DATA
    _ZTIN4inet16CustomVoipPacketE @402 DATA
    _ZTIN4inet16CustomVoipSenderE @403 DATA
    _ZTIN4inet18CustomVoipReceiverE @404 DATA
    _ZTIN4inet22VoIPSenderWithHandoverE @405 DATA
    _ZTIN4inet24VoIPReceiverWithHandoverE @406 DATA
    _ZTIN4inet26CustomVoipPacketDescriptorE @407 DATA
    _ZTIN4inet9Ipv4RouteE @408 DATA
    _ZTIN4inet9ieee8021116Ieee80211MgmtStaE @409 DATA
    _ZTIN4inet9ieee8021117Ieee80211MgmtBaseE @410 DATA
    _ZTIPN4inet10NodeStatusE @411 DATA
    _ZTIPN4inet16CustomVoipPacketE @412 DATA
    _ZTSN4inet10NodeStatusE @413 DATA
    _ZTSN4inet15HandoverManagerE @414 DATA
    _ZTSN4inet16CustomVoipPacketE @415 DATA
    _ZTSN4inet16CustomVoipSenderE @416 DATA
    _ZTSN4inet18CustomVoipReceiverE @417 DATA
    _ZTSN4inet22VoIPSenderWithHandoverE @418 DATA
    _ZTSN4inet24VoIPReceiverWithHandoverE @419 DATA
    _ZTSN4inet26CustomVoipPacketDescriptorE @420 DATA
    _ZTSN4inet9Ipv4RouteE @421 DATA
    _ZTSN4inet9ieee8021116Ieee80211MgmtStaE @422 DATA
    _ZTSN4inet9ieee8021117Ieee80211MgmtBaseE @423 DATA
    _ZTSPN4inet10NodeStatusE @424 DATA
    _ZTSPN4inet16CustomVoipPacketE @425 DATA
    _ZTVN4inet15HandoverManagerE @426 DATA
    _ZTVN4inet16CustomVoipPacketE @427 DATA
    _ZTVN4inet16CustomVoipSenderE @428 DATA
    _ZTVN4inet18CustomVoipReceiverE @429 DATA
    _ZTVN4inet22VoIPSenderWithHandoverE @430 DATA
    _ZTVN4inet24VoIPReceiverWithHandoverE @431 DATA
    _ZTVN4inet26CustomVoipPacketDescriptorE @432 DATA
    _ZThn16_N4inet16CustomVoipPacketD0Ev @433
    _ZThn16_N4inet16CustomVoipPacketD1Ev @434
    _ZThn216_N4inet16CustomVoipSenderD0Ev @435
    _ZThn216_N4inet16CustomVoipSenderD1Ev @436
    _ZThn216_N4inet18CustomVoipReceiverD0Ev @437
    _ZThn216_N4inet18CustomVoipReceiverD1Ev @438
    _ZThn216_N4inet22VoIPSenderWithHandoverD0Ev @439
    _ZThn216_N4inet22VoIPSenderWithHandoverD1Ev @440
    _ZThn216_N4inet24VoIPReceiverWithHandoverD0Ev @441
    _ZThn216_N4inet24VoIPReceiverWithHandoverD1Ev @442
    _ZThn224_N4inet18CustomVoipReceiver12socketClosedEPNS_9UdpSocketE @443
    _ZThn224_N4inet18CustomVoipReceiver17socketDataArrivedEPNS_9UdpSocketEPNS_6PacketE @444
    _ZThn224_N4inet18CustomVoipReceiver18socketErrorArrivedEPNS_9UdpSocketEPNS_10IndicationE @445
    _ZThn224_N4inet18CustomVoipReceiverD0Ev @446
    _ZThn224_N4inet18CustomVoipReceiverD1Ev @447
    _ZThn224_N4inet24VoIPReceiverWithHandoverD0Ev @448
    _ZThn224_N4inet24VoIPReceiverWithHandoverD1Ev @449
    _ZZNK4inet5Chunk4peekINS_16CustomVoipPacketEEEKNS_12IntrusivePtrIT_EERKNS0_8IteratorENS_5units5valueIxNSA_5units1bEEEiENKUlRKNS3_IS0_EEE_clESH_ @450
    _ZZNK4inet5Chunk4peekINS_16CustomVoipPacketEEEKNS_12IntrusivePtrIT_EERKNS0_8IteratorENS_5units5valueIxNSA_5units1bEEEiENKUlRKNS3_IS0_EEE_cvPFbSH_EEv @451
    _ZZNK4inet5Chunk4peekINS_16CustomVoipPacketEEEKNS_12IntrusivePtrIT_EERKNS0_8IteratorENS_5units5valueIxNSA_5units1bEEEiENKUlRKNS3_IS0_EES9_SE_iE_clESH_S9_SE_i @452
    _ZZNK4inet5Chunk4peekINS_16CustomVoipPacketEEEKNS_12IntrusivePtrIT_EERKNS0_8IteratorENS_5units5valueIxNSA_5units1bEEEiENKUlRKNS3_IS0_EES9_SE_iE_cvPFSG_SH_S9_SE_iEEv @453
    _ZZNK4inet5Chunk4peekINS_16CustomVoipPacketEEEKNS_12IntrusivePtrIT_EERKNS0_8IteratorENS_5units5valueIxNSA_5units1bEEEiENUlRKNS3_IS0_EEE_8__invokeESH_ @454
    _ZZNK4inet5Chunk4peekINS_16CustomVoipPacketEEEKNS_12IntrusivePtrIT_EERKNS0_8IteratorENS_5units5valueIxNSA_5units1bEEEiENUlRKNS3_IS0_EES9_SE_iE_8__invokeESH_S9_SE_i @455
